; Function Attrs: nounwind uwtable
define zeroext range(i8 0, 2) i8 @l_Lean_IR_Borrow_OwnedSet_beq(ptr noundef readonly captures(none) %0, ptr noundef readonly captures(none) %1) local_unnamed_addr #1 {
  %3 = getelementptr inbounds nuw i8, ptr %0, i64 8
  %4 = load ptr, ptr %3, align 8, !tbaa !9
  %5 = getelementptr inbounds nuw i8, ptr %0, i64 16
  %6 = load ptr, ptr %5, align 8, !tbaa !9
  %7 = getelementptr inbounds nuw i8, ptr %1, i64 8
  %8 = load ptr, ptr %7, align 8, !tbaa !9
  %9 = getelementptr inbounds nuw i8, ptr %1, i64 16
  %10 = load ptr, ptr %9, align 8, !tbaa !9
  %11 = tail call zeroext i8 @lean_name_eq(ptr noundef %4, ptr noundef %8) #6
  %12 = icmp eq i8 %11, 0
  br i1 %12, label %24, label %13

13:                                               ; preds = %2
  %14 = ptrtoint ptr %6 to i64
  %15 = and i64 %14, 1
  %16 = icmp ne i64 %15, 0
  %17 = ptrtoint ptr %10 to i64
  %18 = and i64 %17, 1
  %19 = icmp ne i64 %18, 0
  %or.cond = select i1 %16, i1 %19, i1 false
  br i1 %or.cond, label %20, label %.critedge.i, !prof !12

20:                                               ; preds = %13
  %21 = icmp eq ptr %6, %10
  br label %lean_nat_eq.exit

.critedge.i:                                      ; preds = %13
  %22 = tail call zeroext i1 @lean_nat_big_eq(ptr noundef %6, ptr noundef %10) #6
  br label %lean_nat_eq.exit

lean_nat_eq.exit:                                 ; preds = %20, %.critedge.i
  %.0.i = phi i1 [ %21, %20 ], [ %22, %.critedge.i ]
  %23 = zext i1 %.0.i to i8
  br label %24

24:                                               ; preds = %2, %lean_nat_eq.exit
  %.0 = phi i8 [ %23, %lean_nat_eq.exit ], [ 0, %2 ]
  ret i8 %.0
}